target datalayout = "e-m:e-p270:32:32-p271:32:32-p272:64:64-i64:64-i128:128-f80:128-n8:16:32:64-S128"
target triple = "x86_64-pc-linux-gnu"

%struct.Wlc_Ntk_t_ = type { ptr, ptr, %struct.Vec_Int_t_, %struct.Vec_Int_t_, %struct.Vec_Int_t_, %struct.Vec_Int_t_, %struct.Vec_Int_t_, %struct.Vec_Int_t_, ptr, ptr, ptr, [60 x i32], [60 x i32], i32, i32, i32, i32, i32, ptr, i32, i32, ptr, ptr, ptr, ptr, ptr, %struct.Vec_Int_t_, %struct.Vec_Int_t_, i32, %struct.Vec_Int_t_, %struct.Vec_Int_t_, %struct.Vec_Int_t_, %struct.Vec_Int_t_, %struct.Vec_Int_t_, %struct.Vec_Int_t_ }
%struct.Vec_Int_t_ = type { i32, i32, ptr }
%struct.Wla_Man_t_ = type { ptr, ptr, ptr, ptr, ptr, ptr, ptr, ptr, ptr, ptr, i32, i32, i32, i32, i32, i32, i64, i64, i64 }
%struct.Wlc_Par_t_ = type { i32, i32, i32, i32, i32, i32, i32, i32, i32, i32, i32, i32, i32, i32, i32, i32, i32, i32, i32, i32, i32, i32, i32, ptr }

@.str.7 = private unnamed_addr constant [77 x i8] c"Derived abstraction with %d objects and %d PPIs. Bit-blasted AIG stats are:\0A\00", align 1

; Function Attrs: inlinehint nounwind uwtable
define internal i32 @Vec_IntSize(ptr noundef %0) #2 {
  %2 = alloca ptr, align 8
  store ptr %0, ptr %2, align 8, !tbaa !39
  %3 = load ptr, ptr %2, align 8, !tbaa !39
  %4 = getelementptr inbounds nuw %struct.Vec_Int_t_, ptr %3, i32 0, i32 1
  %5 = load i32, ptr %4, align 4, !tbaa !44
  ret i32 %5
}

; Function Attrs: inlinehint nounwind uwtable
define internal i32 @Wlc_NtkObjNum(ptr noundef %0) #2 {
  %2 = alloca ptr, align 8
  store ptr %0, ptr %2, align 8, !tbaa !13
  %3 = load ptr, ptr %2, align 8, !tbaa !13
  %4 = getelementptr inbounds nuw %struct.Wlc_Ntk_t_, ptr %3, i32 0, i32 19
  %5 = load i32, ptr %4, align 8, !tbaa !36
  %6 = sub nsw i32 %5, 1
  ret i32 %6
}

; Function Attrs: nounwind uwtable
define ptr @Wla_ManBitBlast(ptr noundef %0, ptr noundef %1) #0 {
  %3 = alloca ptr, align 8
  %4 = alloca ptr, align 8
  %5 = alloca i32, align 4
  %6 = alloca ptr, align 8
  %7 = alloca ptr, align 8
  store ptr %0, ptr %3, align 8, !tbaa !74
  store ptr %1, ptr %4, align 8, !tbaa !13
  call void @llvm.lifetime.start.p0(i64 4, ptr %5) #13
  call void @llvm.lifetime.start.p0(i64 8, ptr %6) #13
  call void @llvm.lifetime.start.p0(i64 8, ptr %7) #13
  %8 = load ptr, ptr %4, align 8, !tbaa !13
  %9 = call ptr @Wlc_NtkBitBlast(ptr noundef %8, ptr noundef null)
  %10 = load ptr, ptr %3, align 8, !tbaa !74
  %11 = getelementptr inbounds nuw %struct.Wla_Man_t_, ptr %10, i32 0, i32 6
  store ptr %9, ptr %11, align 8, !tbaa !111
  %12 = load ptr, ptr %4, align 8, !tbaa !13
  %13 = call i32 @Wlc_NtkDcFlopNum(ptr noundef %12)
  store i32 %13, ptr %5, align 4, !tbaa !15
  %14 = load i32, ptr %5, align 4, !tbaa !15
  %15 = icmp sgt i32 %14, 0
  br i1 %15, label %16, label %32

16:                                               ; preds = %2
  %17 = load ptr, ptr %3, align 8, !tbaa !74
  %18 = getelementptr inbounds nuw %struct.Wla_Man_t_, ptr %17, i32 0, i32 6
  %19 = load ptr, ptr %18, align 8, !tbaa !111
  store ptr %19, ptr %6, align 8, !tbaa !90
  %20 = load ptr, ptr %3, align 8, !tbaa !74
  %21 = getelementptr inbounds nuw %struct.Wla_Man_t_, ptr %20, i32 0, i32 0
  %22 = load ptr, ptr %21, align 8, !tbaa !85
  %23 = load ptr, ptr %3, align 8, !tbaa !74
  %24 = getelementptr inbounds nuw %struct.Wla_Man_t_, ptr %23, i32 0, i32 3
  %25 = load ptr, ptr %24, align 8, !tbaa !94
  %26 = call i32 @Wlc_NtkCountObjBits(ptr noundef %22, ptr noundef %25)
  %27 = load i32, ptr %5, align 4, !tbaa !15
  %28 = call ptr @Gia_ManPermuteInputs(ptr noundef %19, i32 noundef %26, i32 noundef %27)
  %29 = load ptr, ptr %3, align 8, !tbaa !74
  %30 = getelementptr inbounds nuw %struct.Wla_Man_t_, ptr %29, i32 0, i32 6
  store ptr %28, ptr %30, align 8, !tbaa !111
  %31 = load ptr, ptr %6, align 8, !tbaa !90
  call void @Gia_ManStop(ptr noundef %31)
  br label %32

32:                                               ; preds = %16, %2
  %33 = load ptr, ptr %3, align 8, !tbaa !74
  %34 = getelementptr inbounds nuw %struct.Wla_Man_t_, ptr %33, i32 0, i32 1
  %35 = load ptr, ptr %34, align 8, !tbaa !86
  %36 = getelementptr inbounds nuw %struct.Wlc_Par_t_, ptr %35, i32 0, i32 6
  %37 = load i32, ptr %36, align 8, !tbaa !112
  %38 = icmp ne i32 %37, 0
  br i1 %38, label %39, label %47

39:                                               ; preds = %32
  %40 = load ptr, ptr %3, align 8, !tbaa !74
  %41 = getelementptr inbounds nuw %struct.Wla_Man_t_, ptr %40, i32 0, i32 6
  %42 = load ptr, ptr %41, align 8, !tbaa !111
  store ptr %42, ptr %6, align 8, !tbaa !90
  %43 = call ptr @Gia_ManTransformMiter2(ptr noundef %42)
  %44 = load ptr, ptr %3, align 8, !tbaa !74
  %45 = getelementptr inbounds nuw %struct.Wla_Man_t_, ptr %44, i32 0, i32 6
  store ptr %43, ptr %45, align 8, !tbaa !111
  %46 = load ptr, ptr %6, align 8, !tbaa !90
  call void @Gia_ManStop(ptr noundef %46)
  br label %47

47:                                               ; preds = %39, %32
  %48 = load ptr, ptr %3, align 8, !tbaa !74
  %49 = getelementptr inbounds nuw %struct.Wla_Man_t_, ptr %48, i32 0, i32 1
  %50 = load ptr, ptr %49, align 8, !tbaa !86
  %51 = getelementptr inbounds nuw %struct.Wlc_Par_t_, ptr %50, i32 0, i32 20
  %52 = load i32, ptr %51, align 8, !tbaa !101
  %53 = icmp ne i32 %52, 0
  br i1 %53, label %54, label %65

54:                                               ; preds = %47
  %55 = load ptr, ptr %4, align 8, !tbaa !13
  %56 = call i32 @Wlc_NtkObjNum(ptr noundef %55)
  %57 = load ptr, ptr %3, align 8, !tbaa !74
  %58 = getelementptr inbounds nuw %struct.Wla_Man_t_, ptr %57, i32 0, i32 3
  %59 = load ptr, ptr %58, align 8, !tbaa !94
  %60 = call i32 @Vec_IntSize(ptr noundef %59)
  %61 = call i32 (ptr, ...) @printf(ptr noundef @.str.7, i32 noundef %56, i32 noundef %60)
  %62 = load ptr, ptr %3, align 8, !tbaa !74
  %63 = getelementptr inbounds nuw %struct.Wla_Man_t_, ptr %62, i32 0, i32 6
  %64 = load ptr, ptr %63, align 8, !tbaa !111
  call void @Gia_ManPrintStats(ptr noundef %64, ptr noundef null)
  br label %65

65:                                               ; preds = %54, %47
  %66 = load ptr, ptr %3, align 8, !tbaa !74
  %67 = getelementptr inbounds nuw %struct.Wla_Man_t_, ptr %66, i32 0, i32 6
  %68 = load ptr, ptr %67, align 8, !tbaa !111
  %69 = call ptr @Gia_ManToAigSimple(ptr noundef %68)
  store ptr %69, ptr %7, align 8, !tbaa !113
  %70 = load ptr, ptr %7, align 8, !tbaa !113
  call void @llvm.lifetime.end.p0(i64 8, ptr %7) #13
  call void @llvm.lifetime.end.p0(i64 8, ptr %6) #13
  call void @llvm.lifetime.end.p0(i64 4, ptr %5) #13
  ret ptr %70
}