; Function Attrs: nounwind uwtable
define ptr @Wla_ManBitBlast(ptr noundef captures(none) initializes((48, 56)) %0, ptr noundef %1) local_unnamed_addr #1 {
  %3 = tail call ptr @Wlc_NtkBitBlast(ptr noundef %1, ptr noundef null) #24
  %4 = getelementptr inbounds nuw i8, ptr %0, i64 48
  store ptr %3, ptr %4, align 8, !tbaa !130
  %5 = tail call i32 @Wlc_NtkDcFlopNum(ptr noundef %1) #24
  %6 = icmp sgt i32 %5, 0
  br i1 %6, label %7, label %14

7:                                                ; preds = %2
  %8 = load ptr, ptr %4, align 8, !tbaa !130
  %9 = load ptr, ptr %0, align 8, !tbaa !78
  %10 = getelementptr inbounds nuw i8, ptr %0, i64 24
  %11 = load ptr, ptr %10, align 8, !tbaa !111
  %12 = tail call i32 @Wlc_NtkCountObjBits(ptr noundef %9, ptr noundef %11) #24
  %13 = tail call ptr @Gia_ManPermuteInputs(ptr noundef %8, i32 noundef %12, i32 noundef %5) #24
  store ptr %13, ptr %4, align 8, !tbaa !130
  tail call void @Gia_ManStop(ptr noundef %8) #24
  br label %14

14:                                               ; preds = %7, %2
  %15 = getelementptr inbounds nuw i8, ptr %0, i64 8
  %16 = load ptr, ptr %15, align 8, !tbaa !112
  %17 = getelementptr inbounds nuw i8, ptr %16, i64 24
  %18 = load i32, ptr %17, align 8, !tbaa !131
  %.not = icmp eq i32 %18, 0
  br i1 %.not, label %22, label %19

19:                                               ; preds = %14
  %20 = load ptr, ptr %4, align 8, !tbaa !130
  %21 = tail call ptr @Gia_ManTransformMiter2(ptr noundef %20) #24
  store ptr %21, ptr %4, align 8, !tbaa !130
  tail call void @Gia_ManStop(ptr noundef %20) #24
  %.pre = load ptr, ptr %15, align 8, !tbaa !112
  br label %22

22:                                               ; preds = %19, %14
  %23 = phi ptr [ %.pre, %19 ], [ %16, %14 ]
  %24 = getelementptr inbounds nuw i8, ptr %23, i64 80
  %25 = load i32, ptr %24, align 8, !tbaa !121
  %.not19 = icmp eq i32 %25, 0
  br i1 %.not19, label %34, label %26

26:                                               ; preds = %22
  %27 = getelementptr i8, ptr %1, i64 648
  %.val20 = load i32, ptr %27, align 8, !tbaa !30
  %28 = add nsw i32 %.val20, -1
  %29 = getelementptr inbounds nuw i8, ptr %0, i64 24
  %30 = load ptr, ptr %29, align 8, !tbaa !111
  %31 = getelementptr i8, ptr %30, i64 4
  %.val = load i32, ptr %31, align 4, !tbaa !11
  %32 = tail call i32 (ptr, ...) @printf(ptr noundef nonnull dereferenceable(1) @.str.7, i32 noundef %28, i32 noundef %.val)
  %33 = load ptr, ptr %4, align 8, !tbaa !130
  tail call void @Gia_ManPrintStats(ptr noundef %33, ptr noundef null) #24
  br label %34

34:                                               ; preds = %26, %22
  %35 = load ptr, ptr %4, align 8, !tbaa !130
  %36 = tail call ptr @Gia_ManToAigSimple(ptr noundef %35) #24
  ret ptr %36
}